; Function Attrs: mustprogress uwtable
define hidden void @_ZN3smt24theory_special_relations8relation10ensure_varEi(ptr noundef nonnull align 8 dereferenceable(552) %this, i32 noundef %v) local_unnamed_addr #3 align 2 {
entry:
  %m_uf = getelementptr inbounds i8, ptr %this, i64 488
  br label %while.cond

while.cond:                                       ; preds = %while.cond, %entry
  %call = tail call noundef i32 @_ZN10union_findI22union_find_default_ctxS0_E6mk_varEv(ptr noundef nonnull align 8 dereferenceable(56) %m_uf)
  %cmp = icmp ult i32 %call, %v
  br i1 %cmp, label %while.cond, label %while.end, !llvm.loop !9

while.end:                                        ; preds = %while.cond
  %m_graph = getelementptr inbounds i8, ptr %this, i64 64
  %m_out_edges.i = getelementptr inbounds i8, ptr %this, i64 112
  %0 = load ptr, ptr %m_out_edges.i, align 8
  %cmp.i.i = icmp eq ptr %0, null
  br i1 %cmp.i.i, label %if.then, label %_ZNK8dl_graphIN3smt24theory_special_relations7int_extEE13get_num_nodesEv.exit

_ZNK8dl_graphIN3smt24theory_special_relations7int_extEE13get_num_nodesEv.exit: ; preds = %while.end
  %arrayidx.i.i = getelementptr inbounds i8, ptr %0, i64 -4
  %1 = load i32, ptr %arrayidx.i.i, align 4
  %cmp3.not = icmp ugt i32 %1, %v
  br i1 %cmp3.not, label %if.end, label %if.then

if.then:                                          ; preds = %while.end, %_ZNK8dl_graphIN3smt24theory_special_relations7int_extEE13get_num_nodesEv.exit
  tail call void @_ZN8dl_graphIN3smt24theory_special_relations7int_extEE8init_varEi(ptr noundef nonnull align 8 dereferenceable(368) %m_graph, i32 noundef %v)
  br label %if.end

if.end:                                           ; preds = %if.then, %_ZNK8dl_graphIN3smt24theory_special_relations7int_extEE13get_num_nodesEv.exit
  ret void
}